target datalayout = "e-m:e-p270:32:32-p271:32:32-p272:64:64-i64:64-i128:128-f80:128-n8:16:32:64-S128"
target triple = "x86_64-pc-linux-gnu"

%struct.AVIOInterruptCB = type { ptr, ptr }
%struct.InputFile = type { ptr, i32, ptr, i64, i32, i64, i64, i64, ptr, i32 }
%struct.AVFormatContext = type { ptr, ptr, ptr, ptr, ptr, i32, i32, ptr, i32, ptr, i32, ptr, ptr, i64, i64, i64, i32, i32, i32, i64, i64, ptr, i32, i32, ptr, i32, i32, i32, i32, ptr, i64, i32, i32, %struct.AVIOInterruptCB, i32, i32, i32, i32, i64, i32, i32, i32, i32, i32, i32, i32, i32, i32, i32, i32, i32, i64, i32, i32, i32, i32, i32, ptr, ptr, ptr, ptr, i32, ptr, ptr, ptr, ptr, i32, ptr, ptr, i64, ptr, ptr, ptr, i64 }
%struct.AVInputFormat = type { ptr, ptr, i32, ptr, ptr, ptr, ptr }

@stdin_interaction = global i32 1, align 4
@file_overwrite = internal global i32 0, align 4
@no_file_overwrite = internal global i32 0, align 4
@stderr = external global ptr, align 8
@.str.26 = private unnamed_addr constant [42 x i8] c"Error, both -y and -n supplied. Exiting.\0A\00", align 1
@.str.27 = private unnamed_addr constant [5 x i8] c"file\00", align 1
@.str.28 = private unnamed_addr constant [44 x i8] c"File '%s' already exists. Overwrite? [y/N] \00", align 1
@.str.29 = private unnamed_addr constant [27 x i8] c"Not overwriting - exiting\0A\00", align 1
@.str.30 = private unnamed_addr constant [36 x i8] c"File '%s' already exists. Exiting.\0A\00", align 1
@nb_input_files = external global i32, align 4
@input_files = external global ptr, align 8
@.str.31 = private unnamed_addr constant [39 x i8] c"Output %s same as Input #%d - exiting\0A\00", align 1
@.str.32 = private unnamed_addr constant [45 x i8] c"FFmpeg cannot edit existing files in-place.\0A\00", align 1

; Function Attrs: nounwind uwtable
define i32 @assert_file_overwrite(ptr noundef %0) #0 {
  %2 = alloca i32, align 4
  %3 = alloca ptr, align 8
  %4 = alloca ptr, align 8
  %5 = alloca i32, align 4
  %6 = alloca i32, align 4
  %7 = alloca ptr, align 8
  store ptr %0, ptr %3, align 8, !tbaa !23
  call void @llvm.lifetime.start.p0(i64 8, ptr %4) #12
  %8 = load ptr, ptr %3, align 8, !tbaa !23
  %9 = call ptr @avio_find_protocol_name(ptr noundef %8)
  store ptr %9, ptr %4, align 8, !tbaa !23
  %10 = load i32, ptr @file_overwrite, align 4, !tbaa !16
  %11 = icmp ne i32 %10, 0
  br i1 %11, label %12, label %18

12:                                               ; preds = %1
  %13 = load i32, ptr @no_file_overwrite, align 4, !tbaa !16
  %14 = icmp ne i32 %13, 0
  br i1 %14, label %15, label %18

15:                                               ; preds = %12
  %16 = load ptr, ptr @stderr, align 8, !tbaa !81
  %17 = call i32 (ptr, ptr, ...) @fprintf(ptr noundef %16, ptr noundef @.str.26) #12
  store i32 -22, ptr %2, align 4
  store i32 1, ptr %5, align 4
  br label %105

18:                                               ; preds = %12, %1
  %19 = load i32, ptr @file_overwrite, align 4, !tbaa !16
  %20 = icmp ne i32 %19, 0
  br i1 %20, label %53, label %21

21:                                               ; preds = %18
  %22 = load ptr, ptr %4, align 8, !tbaa !23
  %23 = icmp ne ptr %22, null
  br i1 %23, label %24, label %52

24:                                               ; preds = %21
  %25 = load ptr, ptr %4, align 8, !tbaa !23
  %26 = call i32 @strcmp(ptr noundef %25, ptr noundef @.str.27) #13
  %27 = icmp ne i32 %26, 0
  br i1 %27, label %52, label %28

28:                                               ; preds = %24
  %29 = load ptr, ptr %3, align 8, !tbaa !23
  %30 = call i32 @avio_check(ptr noundef %29, i32 noundef 0)
  %31 = icmp eq i32 %30, 0
  br i1 %31, label %32, label %52

32:                                               ; preds = %28
  %33 = load i32, ptr @stdin_interaction, align 4, !tbaa !16
  %34 = icmp ne i32 %33, 0
  br i1 %34, label %35, label %49

35:                                               ; preds = %32
  %36 = load i32, ptr @no_file_overwrite, align 4, !tbaa !16
  %37 = icmp ne i32 %36, 0
  br i1 %37, label %49, label %38

38:                                               ; preds = %35
  %39 = load ptr, ptr @stderr, align 8, !tbaa !81
  %40 = load ptr, ptr %3, align 8, !tbaa !23
  %41 = call i32 (ptr, ptr, ...) @fprintf(ptr noundef %39, ptr noundef @.str.28, ptr noundef %40) #12
  %42 = load ptr, ptr @stderr, align 8, !tbaa !81
  %43 = call i32 @fflush(ptr noundef %42)
  call void @term_exit()
  %44 = call ptr @__sysv_signal(i32 noundef 2, ptr noundef null) #12
  %45 = call i32 @read_yesno()
  %46 = icmp ne i32 %45, 0
  br i1 %46, label %48, label %47

47:                                               ; preds = %38
  call void (ptr, i32, ptr, ...) @av_log(ptr noundef null, i32 noundef 8, ptr noundef @.str.29)
  store i32 -1414092869, ptr %2, align 4
  store i32 1, ptr %5, align 4
  br label %105

48:                                               ; preds = %38
  call void @term_init()
  br label %51

49:                                               ; preds = %35, %32
  %50 = load ptr, ptr %3, align 8, !tbaa !23
  call void (ptr, i32, ptr, ...) @av_log(ptr noundef null, i32 noundef 8, ptr noundef @.str.30, ptr noundef %50)
  store i32 -1414092869, ptr %2, align 4
  store i32 1, ptr %5, align 4
  br label %105

51:                                               ; preds = %48
  br label %52

52:                                               ; preds = %51, %28, %24, %21
  br label %53

53:                                               ; preds = %52, %18
  %54 = load ptr, ptr %4, align 8, !tbaa !23
  %55 = icmp ne ptr %54, null
  br i1 %55, label %56, label %104

56:                                               ; preds = %53
  %57 = load ptr, ptr %4, align 8, !tbaa !23
  %58 = call i32 @strcmp(ptr noundef %57, ptr noundef @.str.27) #13
  %59 = icmp ne i32 %58, 0
  br i1 %59, label %104, label %60

60:                                               ; preds = %56
  call void @llvm.lifetime.start.p0(i64 4, ptr %6) #12
  store i32 0, ptr %6, align 4, !tbaa !16
  br label %61

61:                                               ; preds = %98, %60
  %62 = load i32, ptr %6, align 4, !tbaa !16
  %63 = load i32, ptr @nb_input_files, align 4, !tbaa !16
  %64 = icmp slt i32 %62, %63
  br i1 %64, label %66, label %65

65:                                               ; preds = %61
  store i32 2, ptr %5, align 4
  br label %101

66:                                               ; preds = %61
  call void @llvm.lifetime.start.p0(i64 8, ptr %7) #12
  %67 = load ptr, ptr @input_files, align 8, !tbaa !83
  %68 = load i32, ptr %6, align 4, !tbaa !16
  %69 = sext i32 %68 to i64
  %70 = getelementptr inbounds ptr, ptr %67, i64 %69
  %71 = load ptr, ptr %70, align 8, !tbaa !85
  store ptr %71, ptr %7, align 8, !tbaa !85
  %72 = load ptr, ptr %7, align 8, !tbaa !85
  %73 = getelementptr inbounds nuw %struct.InputFile, ptr %72, i32 0, i32 2
  %74 = load ptr, ptr %73, align 8, !tbaa !87
  %75 = getelementptr inbounds nuw %struct.AVFormatContext, ptr %74, i32 0, i32 1
  %76 = load ptr, ptr %75, align 8, !tbaa !90
  %77 = getelementptr inbounds nuw %struct.AVInputFormat, ptr %76, i32 0, i32 2
  %78 = load i32, ptr %77, align 8, !tbaa !100
  %79 = and i32 %78, 1
  %80 = icmp ne i32 %79, 0
  br i1 %80, label %81, label %82

81:                                               ; preds = %66
  store i32 4, ptr %5, align 4
  br label %95

82:                                               ; preds = %66
  %83 = load ptr, ptr %3, align 8, !tbaa !23
  %84 = load ptr, ptr %7, align 8, !tbaa !85
  %85 = getelementptr inbounds nuw %struct.InputFile, ptr %84, i32 0, i32 2
  %86 = load ptr, ptr %85, align 8, !tbaa !87
  %87 = getelementptr inbounds nuw %struct.AVFormatContext, ptr %86, i32 0, i32 12
  %88 = load ptr, ptr %87, align 8, !tbaa !103
  %89 = call i32 @strcmp(ptr noundef %83, ptr noundef %88) #13
  %90 = icmp ne i32 %89, 0
  br i1 %90, label %94, label %91

91:                                               ; preds = %82
  %92 = load ptr, ptr %3, align 8, !tbaa !23
  %93 = load i32, ptr %6, align 4, !tbaa !16
  call void (ptr, i32, ptr, ...) @av_log(ptr noundef null, i32 noundef 8, ptr noundef @.str.31, ptr noundef %92, i32 noundef %93)
  call void (ptr, i32, ptr, ...) @av_log(ptr noundef null, i32 noundef 24, ptr noundef @.str.32)
  store i32 -22, ptr %2, align 4
  store i32 1, ptr %5, align 4
  br label %95

94:                                               ; preds = %82
  store i32 0, ptr %5, align 4
  br label %95

95:                                               ; preds = %94, %91, %81
  call void @llvm.lifetime.end.p0(i64 8, ptr %7) #12
  %96 = load i32, ptr %5, align 4
  switch i32 %96, label %101 [
    i32 0, label %97
    i32 4, label %98
  ]

97:                                               ; preds = %95
  br label %98

98:                                               ; preds = %97, %95
  %99 = load i32, ptr %6, align 4, !tbaa !16
  %100 = add nsw i32 %99, 1
  store i32 %100, ptr %6, align 4, !tbaa !16
  br label %61, !llvm.loop !104

101:                                              ; preds = %95, %65
  call void @llvm.lifetime.end.p0(i64 4, ptr %6) #12
  %102 = load i32, ptr %5, align 4
  switch i32 %102, label %105 [
    i32 2, label %103
  ]

103:                                              ; preds = %101
  br label %104

104:                                              ; preds = %103, %56, %53
  store i32 0, ptr %2, align 4
  store i32 1, ptr %5, align 4
  br label %105

105:                                              ; preds = %104, %101, %49, %47, %15
  call void @llvm.lifetime.end.p0(i64 8, ptr %4) #12
  %106 = load i32, ptr %2, align 4
  ret i32 %106
}