; Function Attrs: nounwind uwtable
define range(i32 -1414092869, 1) i32 @assert_file_overwrite(ptr noundef %0) local_unnamed_addr #0 {
  %2 = tail call ptr @avio_find_protocol_name(ptr noundef %0) #15
  %3 = load i32, ptr @file_overwrite, align 4, !tbaa !38
  %4 = icmp ne i32 %3, 0
  %5 = load i32, ptr @no_file_overwrite, align 4
  %6 = icmp ne i32 %5, 0
  %or.cond = select i1 %4, i1 %6, i1 false
  br i1 %or.cond, label %7, label %10

7:                                                ; preds = %1
  %8 = load ptr, ptr @stderr, align 8, !tbaa !59
  %9 = tail call i64 @fwrite(ptr nonnull @.str.26, i64 41, i64 1, ptr %8) #18
  br label %.critedge

10:                                               ; preds = %1
  %11 = icmp eq i32 %3, 0
  %12 = icmp ne ptr %2, null
  %or.cond5 = select i1 %11, i1 %12, i1 false
  br i1 %or.cond5, label %13, label %33

13:                                               ; preds = %10
  %14 = tail call i32 @strcmp(ptr noundef nonnull dereferenceable(1) %2, ptr noundef nonnull dereferenceable(5) @.str.27) #17
  %.not = icmp eq i32 %14, 0
  br i1 %.not, label %15, label %.thread

15:                                               ; preds = %13
  %16 = tail call i32 @avio_check(ptr noundef %0, i32 noundef 0) #15
  %17 = icmp eq i32 %16, 0
  br i1 %17, label %18, label %.thread

18:                                               ; preds = %15
  %19 = load i32, ptr @stdin_interaction, align 4, !tbaa !38
  %20 = icmp eq i32 %19, 0
  %21 = load i32, ptr @no_file_overwrite, align 4
  %22 = icmp ne i32 %21, 0
  %or.cond3 = select i1 %20, i1 true, i1 %22
  br i1 %or.cond3, label %32, label %23

23:                                               ; preds = %18
  %24 = load ptr, ptr @stderr, align 8, !tbaa !59
  %25 = tail call i32 (ptr, ptr, ...) @fprintf(ptr noundef %24, ptr noundef nonnull @.str.28, ptr noundef %0) #19
  %26 = load ptr, ptr @stderr, align 8, !tbaa !59
  %27 = tail call i32 @fflush(ptr noundef %26)
  tail call void @term_exit() #15
  %28 = tail call ptr @__sysv_signal(i32 noundef 2, ptr noundef null) #15
  %29 = tail call i32 @read_yesno() #15
  %.not28 = icmp eq i32 %29, 0
  br i1 %.not28, label %30, label %31

30:                                               ; preds = %23
  tail call void (ptr, i32, ptr, ...) @av_log(ptr noundef null, i32 noundef 8, ptr noundef nonnull @.str.29) #15
  br label %.critedge

31:                                               ; preds = %23
  tail call void @term_init() #15
  br label %.thread

32:                                               ; preds = %18
  tail call void (ptr, i32, ptr, ...) @av_log(ptr noundef null, i32 noundef 8, ptr noundef nonnull @.str.30, ptr noundef %0) #15
  br label %.critedge

33:                                               ; preds = %10
  br i1 %12, label %.thread, label %.critedge

.thread:                                          ; preds = %31, %15, %13, %33
  %34 = tail call i32 @strcmp(ptr noundef nonnull dereferenceable(1) %2, ptr noundef nonnull dereferenceable(5) @.str.27) #17
  %.not29 = icmp eq i32 %34, 0
  br i1 %.not29, label %.preheader, label %.critedge

.preheader:                                       ; preds = %.thread
  %35 = load i32, ptr @nb_input_files, align 4, !tbaa !38
  %.not3237 = icmp sgt i32 %35, 0
  br i1 %.not3237, label %.lr.ph, label %.critedge

.lr.ph:                                           ; preds = %.preheader
  %36 = load ptr, ptr @input_files, align 8, !tbaa !61
  %wide.trip.count = zext nneg i32 %35 to i64
  br label %37

37:                                               ; preds = %.lr.ph, %51
  %indvars.iv = phi i64 [ 0, %.lr.ph ], [ %indvars.iv.next, %51 ]
  %38 = getelementptr inbounds nuw ptr, ptr %36, i64 %indvars.iv
  %39 = load ptr, ptr %38, align 8, !tbaa !63
  %40 = getelementptr inbounds nuw i8, ptr %39, i64 16
  %41 = load ptr, ptr %40, align 8, !tbaa !65
  %42 = getelementptr inbounds nuw i8, ptr %41, i64 8
  %43 = load ptr, ptr %42, align 8, !tbaa !69
  %44 = getelementptr inbounds nuw i8, ptr %43, i64 16
  %45 = load i32, ptr %44, align 8, !tbaa !79
  %46 = and i32 %45, 1
  %.not30 = icmp eq i32 %46, 0
  br i1 %.not30, label %47, label %51

47:                                               ; preds = %37
  %48 = getelementptr inbounds nuw i8, ptr %41, i64 88
  %49 = load ptr, ptr %48, align 8, !tbaa !82
  %50 = tail call i32 @strcmp(ptr noundef nonnull dereferenceable(1) %0, ptr noundef nonnull dereferenceable(1) %49) #17
  %.not31 = icmp eq i32 %50, 0
  br i1 %.not31, label %52, label %51

51:                                               ; preds = %37, %47
  %indvars.iv.next = add nuw nsw i64 %indvars.iv, 1
  %exitcond.not = icmp eq i64 %indvars.iv.next, %wide.trip.count
  br i1 %exitcond.not, label %.critedge, label %37, !llvm.loop !83

52:                                               ; preds = %47
  %53 = trunc nuw nsw i64 %indvars.iv to i32
  tail call void (ptr, i32, ptr, ...) @av_log(ptr noundef null, i32 noundef 8, ptr noundef nonnull @.str.31, ptr noundef nonnull %0, i32 noundef %53) #15
  tail call void (ptr, i32, ptr, ...) @av_log(ptr noundef null, i32 noundef 24, ptr noundef nonnull @.str.32) #15
  br label %.critedge

.critedge:                                        ; preds = %51, %.preheader, %33, %.thread, %52, %32, %30, %7
  %.0 = phi i32 [ -22, %7 ], [ -22, %52 ], [ -1414092869, %32 ], [ -1414092869, %30 ], [ 0, %.thread ], [ 0, %33 ], [ 0, %.preheader ], [ 0, %51 ]
  ret i32 %.0
}